target datalayout = "e-m:e-p270:32:32-p271:32:32-p272:64:64-i64:64-i128:128-f80:128-n8:16:32:64-S128"
target triple = "x86_64-unknown-linux-gnu"

%struct.RAMBlock = type { %struct.rcu_head, ptr, ptr, ptr, i64, i64, i64, ptr, i32, [256 x i8], %struct.anon.2, %struct.anon.3, i32, i64, i64, ptr, ptr, ptr, i8, i64 }
%struct.rcu_head = type { ptr, ptr }
%struct.anon.2 = type { ptr, ptr }
%struct.anon.3 = type { ptr }

@.str = private unnamed_addr constant [24 x i8] c"../qemu/migration/ram.c\00", align 1
@.str.124 = private unnamed_addr constant [20 x i8] c"RAM block not found\00", align 1
@__func__.ram_mig_ram_block_resized = private unnamed_addr constant [26 x i8] c"ram_mig_ram_block_resized\00", align 1
@.str.125 = private unnamed_addr constant [39 x i8] c"RAM block '%s' resized during precopy.\00", align 1
@.str.126 = private unnamed_addr constant [45 x i8] c"RAM block '%s' discard of resized RAM failed\00", align 1
@.str.127 = private unnamed_addr constant [49 x i8] c"RAM block '%s' resized during postcopy state: %d\00", align 1

; Function Attrs: nounwind sspstrong uwtable
define dso_local zeroext i1 @migrate_ram_is_ignored(ptr noundef %block) #0 {
entry:
  %block.addr = alloca ptr, align 8
  store ptr %block, ptr %block.addr, align 8
  %0 = load ptr, ptr %block.addr, align 8
  %call = call zeroext i1 @qemu_ram_is_migratable(ptr noundef %0)
  br i1 %call, label %lor.rhs, label %lor.end

lor.rhs:                                          ; preds = %entry
  %call1 = call zeroext i1 @migrate_ignore_shared()
  br i1 %call1, label %land.lhs.true, label %land.end

land.lhs.true:                                    ; preds = %lor.rhs
  %1 = load ptr, ptr %block.addr, align 8
  %call2 = call zeroext i1 @qemu_ram_is_shared(ptr noundef %1)
  br i1 %call2, label %land.rhs, label %land.end

land.rhs:                                         ; preds = %land.lhs.true
  %2 = load ptr, ptr %block.addr, align 8
  %call3 = call zeroext i1 @qemu_ram_is_named_file(ptr noundef %2)
  br label %land.end

land.end:                                         ; preds = %land.rhs, %land.lhs.true, %lor.rhs
  %3 = phi i1 [ false, %land.lhs.true ], [ false, %lor.rhs ], [ %call3, %land.rhs ]
  br label %lor.end

lor.end:                                          ; preds = %land.end, %entry
  %4 = phi i1 [ true, %entry ], [ %3, %land.end ]
  ret i1 %4
}

; Function Attrs: nounwind sspstrong uwtable
define internal void @ram_mig_ram_block_resized(ptr noundef %n, ptr noundef %host, i64 noundef %old_size, i64 noundef %new_size) #0 {
entry:
  %n.addr = alloca ptr, align 8
  %host.addr = alloca ptr, align 8
  %old_size.addr = alloca i64, align 8
  %new_size.addr = alloca i64, align 8
  %ps = alloca i32, align 4
  %offset = alloca i64, align 8
  %rb = alloca ptr, align 8
  %err = alloca ptr, align 8
  store ptr %n, ptr %n.addr, align 8
  store ptr %host, ptr %host.addr, align 8
  store i64 %old_size, ptr %old_size.addr, align 8
  store i64 %new_size, ptr %new_size.addr, align 8
  %call = call i32 @postcopy_state_get()
  store i32 %call, ptr %ps, align 4
  %0 = load ptr, ptr %host.addr, align 8
  %call1 = call ptr @qemu_ram_block_from_host(ptr noundef %0, i1 noundef zeroext false, ptr noundef %offset)
  store ptr %call1, ptr %rb, align 8
  store ptr null, ptr %err, align 8
  %1 = load ptr, ptr %rb, align 8
  %tobool = icmp ne ptr %1, null
  br i1 %tobool, label %if.end, label %if.then

if.then:                                          ; preds = %entry
  call void (ptr, ...) @error_report(ptr noundef @.str.124)
  br label %sw.epilog

if.end:                                           ; preds = %entry
  %2 = load ptr, ptr %rb, align 8
  %call2 = call zeroext i1 @migrate_ram_is_ignored(ptr noundef %2)
  br i1 %call2, label %if.then3, label %if.end4

if.then3:                                         ; preds = %if.end
  br label %sw.epilog

if.end4:                                          ; preds = %if.end
  %call5 = call zeroext i1 @migration_is_idle()
  br i1 %call5, label %if.end7, label %if.then6

if.then6:                                         ; preds = %if.end4
  %3 = load ptr, ptr %rb, align 8
  %idstr = getelementptr inbounds %struct.RAMBlock, ptr %3, i32 0, i32 9
  %arraydecay = getelementptr inbounds [256 x i8], ptr %idstr, i64 0, i64 0
  call void (ptr, ptr, i32, ptr, ptr, ...) @error_setg_internal(ptr noundef %err, ptr noundef @.str, i32 noundef 4263, ptr noundef @__func__.ram_mig_ram_block_resized, ptr noundef @.str.125, ptr noundef %arraydecay)
  %4 = load ptr, ptr %err, align 8
  call void @migration_cancel(ptr noundef %4)
  %5 = load ptr, ptr %err, align 8
  call void @error_free(ptr noundef %5)
  br label %if.end7

if.end7:                                          ; preds = %if.then6, %if.end4
  %6 = load i32, ptr %ps, align 4
  switch i32 %6, label %sw.default [
    i32 1, label %sw.bb
    i32 0, label %sw.bb18
    i32 4, label %sw.bb18
    i32 5, label %sw.bb18
  ]

sw.bb:                                            ; preds = %if.end7
  %7 = load i64, ptr %old_size.addr, align 8
  %8 = load i64, ptr %new_size.addr, align 8
  %cmp = icmp ult i64 %7, %8
  br i1 %cmp, label %if.then8, label %if.end17

if.then8:                                         ; preds = %sw.bb
  %9 = load ptr, ptr %rb, align 8
  %idstr9 = getelementptr inbounds %struct.RAMBlock, ptr %9, i32 0, i32 9
  %arraydecay10 = getelementptr inbounds [256 x i8], ptr %idstr9, i64 0, i64 0
  %10 = load i64, ptr %old_size.addr, align 8
  %11 = load i64, ptr %new_size.addr, align 8
  %12 = load i64, ptr %old_size.addr, align 8
  %sub = sub i64 %11, %12
  %call11 = call i32 @ram_discard_range(ptr noundef %arraydecay10, i64 noundef %10, i64 noundef %sub)
  %tobool12 = icmp ne i32 %call11, 0
  br i1 %tobool12, label %if.then13, label %if.end16

if.then13:                                        ; preds = %if.then8
  %13 = load ptr, ptr %rb, align 8
  %idstr14 = getelementptr inbounds %struct.RAMBlock, ptr %13, i32 0, i32 9
  %arraydecay15 = getelementptr inbounds [256 x i8], ptr %idstr14, i64 0, i64 0
  call void (ptr, ...) @error_report(ptr noundef @.str.126, ptr noundef %arraydecay15)
  br label %if.end16

if.end16:                                         ; preds = %if.then13, %if.then8
  br label %if.end17

if.end17:                                         ; preds = %if.end16, %sw.bb
  %14 = load i64, ptr %new_size.addr, align 8
  %15 = load ptr, ptr %rb, align 8
  %postcopy_length = getelementptr inbounds %struct.RAMBlock, ptr %15, i32 0, i32 19
  store i64 %14, ptr %postcopy_length, align 8
  br label %sw.epilog

sw.bb18:                                          ; preds = %if.end7, %if.end7, %if.end7
  br label %sw.epilog

sw.default:                                       ; preds = %if.end7
  %16 = load ptr, ptr %rb, align 8
  %idstr19 = getelementptr inbounds %struct.RAMBlock, ptr %16, i32 0, i32 9
  %arraydecay20 = getelementptr inbounds [256 x i8], ptr %idstr19, i64 0, i64 0
  %17 = load i32, ptr %ps, align 4
  call void (ptr, ...) @error_report(ptr noundef @.str.127, ptr noundef %arraydecay20, i32 noundef %17)
  call void @exit(i32 noundef -1) #14
  unreachable

sw.epilog:                                        ; preds = %sw.bb18, %if.end17, %if.then3, %if.then
  ret void
}