; Function Attrs: nounwind sspstrong uwtable
define internal void @ram_mig_ram_block_resized(ptr readnone captures(none) %n, ptr noundef %host, i64 noundef %old_size, i64 noundef %new_size) #0 {
entry:
  %offset = alloca i64, align 8
  %err = alloca ptr, align 8
  %call = tail call i32 @postcopy_state_get() #18
  %call1 = call ptr @qemu_ram_block_from_host(ptr noundef %host, i1 noundef zeroext false, ptr noundef nonnull %offset) #18
  store ptr null, ptr %err, align 8
  %tobool.not = icmp eq ptr %call1, null
  br i1 %tobool.not, label %if.then, label %if.end

if.then:                                          ; preds = %entry
  call void (ptr, ...) @error_report(ptr noundef nonnull @.str.124) #18
  br label %sw.epilog

if.end:                                           ; preds = %entry
  %call.i = call zeroext i1 @qemu_ram_is_migratable(ptr noundef nonnull %call1) #18
  br i1 %call.i, label %lor.rhs.i, label %sw.epilog

lor.rhs.i:                                        ; preds = %if.end
  %call1.i = call zeroext i1 @migrate_ignore_shared() #18
  br i1 %call1.i, label %land.lhs.true.i, label %if.end4

land.lhs.true.i:                                  ; preds = %lor.rhs.i
  %call2.i = call zeroext i1 @qemu_ram_is_shared(ptr noundef nonnull %call1) #18
  br i1 %call2.i, label %migrate_ram_is_ignored.exit, label %if.end4

migrate_ram_is_ignored.exit:                      ; preds = %land.lhs.true.i
  %call3.i = call zeroext i1 @qemu_ram_is_named_file(ptr noundef nonnull %call1) #18
  br i1 %call3.i, label %sw.epilog, label %if.end4

if.end4:                                          ; preds = %lor.rhs.i, %land.lhs.true.i, %migrate_ram_is_ignored.exit
  %call5 = call zeroext i1 @migration_is_idle() #18
  br i1 %call5, label %if.end7, label %if.then6

if.then6:                                         ; preds = %if.end4
  %idstr = getelementptr inbounds nuw i8, ptr %call1, i64 76
  call void (ptr, ptr, i32, ptr, ptr, ...) @error_setg_internal(ptr noundef nonnull %err, ptr noundef nonnull @.str, i32 noundef 4263, ptr noundef nonnull @__func__.ram_mig_ram_block_resized, ptr noundef nonnull @.str.125, ptr noundef nonnull %idstr) #18
  %0 = load ptr, ptr %err, align 8
  call void @migration_cancel(ptr noundef %0) #18
  %1 = load ptr, ptr %err, align 8
  call void @error_free(ptr noundef %1) #18
  br label %if.end7

if.end7:                                          ; preds = %if.then6, %if.end4
  switch i32 %call, label %sw.default [
    i32 1, label %sw.bb
    i32 0, label %sw.epilog
    i32 4, label %sw.epilog
    i32 5, label %sw.epilog
  ]

sw.bb:                                            ; preds = %if.end7
  %cmp = icmp ult i64 %old_size, %new_size
  br i1 %cmp, label %if.then8, label %if.end17

if.then8:                                         ; preds = %sw.bb
  %idstr9 = getelementptr inbounds nuw i8, ptr %call1, i64 76
  %sub = sub nuw i64 %new_size, %old_size
  %call11 = call i32 @ram_discard_range(ptr noundef nonnull %idstr9, i64 noundef %old_size, i64 noundef %sub)
  %tobool12.not = icmp eq i32 %call11, 0
  br i1 %tobool12.not, label %if.end17, label %if.then13

if.then13:                                        ; preds = %if.then8
  call void (ptr, ...) @error_report(ptr noundef nonnull @.str.126, ptr noundef nonnull %idstr9) #18
  br label %if.end17

if.end17:                                         ; preds = %if.then8, %if.then13, %sw.bb
  %postcopy_length = getelementptr inbounds nuw i8, ptr %call1, i64 416
  store i64 %new_size, ptr %postcopy_length, align 8
  br label %sw.epilog

sw.default:                                       ; preds = %if.end7
  %idstr19 = getelementptr inbounds nuw i8, ptr %call1, i64 76
  call void (ptr, ...) @error_report(ptr noundef nonnull @.str.127, ptr noundef nonnull %idstr19, i32 noundef %call) #18
  call void @exit(i32 noundef -1) #24
  unreachable

sw.epilog:                                        ; preds = %if.end, %if.end7, %if.end7, %if.end7, %migrate_ram_is_ignored.exit, %if.end17, %if.then
  ret void
}